target datalayout = "e-m:e-p270:32:32-p271:32:32-p272:64:64-i64:64-i128:128-f80:128-n8:16:32:64-S128"
target triple = "x86_64-pc-linux-gnu"

@H5_libinit_g = external global i8, align 1
@H5_libterm_g = external global i8, align 1
@.str = private unnamed_addr constant [97 x i8] c"generated/home/dtcxzyw/WorkSpace/Projects/compilers/llvm-opt-benchmark/bench/hdf5/hdf5/src/H5P.c\00", align 1
@H5E_FUNC_g = external global i64, align 8
@H5E_CANTINIT_g = external global i64, align 8
@.str.1 = private unnamed_addr constant [30 x i8] c"library initialization failed\00", align 1
@H5E_CANTSET_g = external global i64, align 8
@.str.2 = private unnamed_addr constant [22 x i8] c"can't set API context\00", align 1
@H5E_ARGS_g = external global i64, align 8
@H5E_BADTYPE_g = external global i64, align 8
@H5E_PLIST_g = external global i64, align 8
@H5E_CANTREGISTER_g = external global i64, align 8
@H5E_BADVALUE_g = external global i64, align 8
@.str.18 = private unnamed_addr constant [20 x i8] c"not a property list\00", align 1
@.str.19 = private unnamed_addr constant [22 x i8] c"invalid property name\00", align 1
@.str.23 = private unnamed_addr constant [22 x i8] c"not a property object\00", align 1
@__func__.H5Pget_size = private unnamed_addr constant [12 x i8] c"H5Pget_size\00", align 1
@.str.27 = private unnamed_addr constant [22 x i8] c"invalid property size\00", align 1
@.str.28 = private unnamed_addr constant [30 x i8] c"unable to query size in plist\00", align 1

; Function Attrs: nounwind uwtable
define i32 @H5Pget_size(i64 noundef %0, ptr noundef %1, ptr noundef %2) #0 {
  %4 = alloca i64, align 8
  %5 = alloca ptr, align 8
  %6 = alloca ptr, align 8
  %7 = alloca ptr, align 8
  %8 = alloca ptr, align 8
  %9 = alloca i32, align 4
  %10 = alloca i8, align 1
  %11 = alloca i8, align 1
  store i64 %0, ptr %4, align 8
  store ptr %1, ptr %5, align 8
  store ptr %2, ptr %6, align 8
  store i8 0, ptr %10, align 1
  store i8 0, ptr %11, align 1
  %12 = load i8, ptr @H5_libinit_g, align 1
  %13 = trunc i8 %12 to i1
  br i1 %13, label %18, label %14

14:                                               ; preds = %3
  %15 = load i8, ptr @H5_libterm_g, align 1
  %16 = trunc i8 %15 to i1
  %17 = xor i1 %16, true
  br label %18

18:                                               ; preds = %14, %3
  %19 = phi i1 [ false, %3 ], [ %17, %14 ]
  %20 = xor i1 %19, true
  %21 = xor i1 %20, true
  %22 = zext i1 %21 to i32
  %23 = sext i32 %22 to i64
  %24 = icmp ne i64 %23, 0
  br i1 %24, label %25, label %49

25:                                               ; preds = %18
  %26 = call i32 @H5_init_library()
  %27 = icmp slt i32 %26, 0
  %28 = xor i1 %27, true
  %29 = xor i1 %28, true
  %30 = zext i1 %29 to i32
  %31 = sext i32 %30 to i64
  %32 = icmp ne i64 %31, 0
  br i1 %32, label %33, label %48

33:                                               ; preds = %25
  br label %34

34:                                               ; preds = %33
  br label %35

35:                                               ; preds = %34
  br label %36

36:                                               ; preds = %35
  %37 = load i64, ptr @H5E_FUNC_g, align 8
  %38 = load i64, ptr @H5E_CANTINIT_g, align 8
  %39 = call i32 (ptr, ptr, i32, i64, i64, ptr, ...) @H5E_printf_stack(ptr noundef @.str, ptr noundef @__func__.H5Pget_size, i32 noundef 750, i64 noundef %37, i64 noundef %38, ptr noundef @.str.1)
  br label %40

40:                                               ; preds = %36
  store i8 1, ptr %11, align 1
  %41 = load i8, ptr %11, align 1
  %42 = trunc i8 %41 to i1
  %43 = zext i1 %42 to i8
  store i8 %43, ptr %11, align 1
  br label %44

44:                                               ; preds = %40
  br label %45

45:                                               ; preds = %44
  store i32 -1, ptr %9, align 4
  br label %244

46:                                               ; No predecessors!
  br label %47

47:                                               ; preds = %46
  br label %48

48:                                               ; preds = %47, %25
  br label %49

49:                                               ; preds = %48, %18
  %50 = call i32 @H5CX_push()
  %51 = icmp slt i32 %50, 0
  %52 = xor i1 %51, true
  %53 = xor i1 %52, true
  %54 = zext i1 %53 to i32
  %55 = sext i32 %54 to i64
  %56 = icmp ne i64 %55, 0
  br i1 %56, label %57, label %72

57:                                               ; preds = %49
  br label %58

58:                                               ; preds = %57
  br label %59

59:                                               ; preds = %58
  br label %60

60:                                               ; preds = %59
  %61 = load i64, ptr @H5E_FUNC_g, align 8
  %62 = load i64, ptr @H5E_CANTSET_g, align 8
  %63 = call i32 (ptr, ptr, i32, i64, i64, ptr, ...) @H5E_printf_stack(ptr noundef @.str, ptr noundef @__func__.H5Pget_size, i32 noundef 750, i64 noundef %61, i64 noundef %62, ptr noundef @.str.2)
  br label %64

64:                                               ; preds = %60
  store i8 1, ptr %11, align 1
  %65 = load i8, ptr %11, align 1
  %66 = trunc i8 %65 to i1
  %67 = zext i1 %66 to i8
  store i8 %67, ptr %11, align 1
  br label %68

68:                                               ; preds = %64
  br label %69

69:                                               ; preds = %68
  store i32 -1, ptr %9, align 4
  br label %244

70:                                               ; No predecessors!
  br label %71

71:                                               ; preds = %70
  br label %73

72:                                               ; preds = %49
  store i8 1, ptr %10, align 1
  br label %73

73:                                               ; preds = %72, %71
  %74 = call i32 @H5E_clear_stack()
  %75 = load i64, ptr %4, align 8
  %76 = call i32 @H5I_get_type(i64 noundef %75)
  %77 = icmp ne i32 11, %76
  br i1 %77, label %78, label %97

78:                                               ; preds = %73
  %79 = load i64, ptr %4, align 8
  %80 = call i32 @H5I_get_type(i64 noundef %79)
  %81 = icmp ne i32 10, %80
  br i1 %81, label %82, label %97

82:                                               ; preds = %78
  br label %83

83:                                               ; preds = %82
  br label %84

84:                                               ; preds = %83
  br label %85

85:                                               ; preds = %84
  %86 = load i64, ptr @H5E_ARGS_g, align 8
  %87 = load i64, ptr @H5E_BADTYPE_g, align 8
  %88 = call i32 (ptr, ptr, i32, i64, i64, ptr, ...) @H5E_printf_stack(ptr noundef @.str, ptr noundef @__func__.H5Pget_size, i32 noundef 754, i64 noundef %86, i64 noundef %87, ptr noundef @.str.23)
  br label %89

89:                                               ; preds = %85
  store i8 1, ptr %11, align 1
  %90 = load i8, ptr %11, align 1
  %91 = trunc i8 %90 to i1
  %92 = zext i1 %91 to i8
  store i8 %92, ptr %11, align 1
  br label %93

93:                                               ; preds = %89
  br label %94

94:                                               ; preds = %93
  store i32 -1, ptr %9, align 4
  br label %244

95:                                               ; No predecessors!
  br label %96

96:                                               ; preds = %95
  br label %97

97:                                               ; preds = %96, %78, %73
  %98 = load ptr, ptr %5, align 8
  %99 = icmp ne ptr %98, null
  br i1 %99, label %100, label %104

100:                                              ; preds = %97
  %101 = load ptr, ptr %5, align 8
  %102 = load i8, ptr %101, align 1
  %103 = icmp ne i8 %102, 0
  br i1 %103, label %119, label %104

104:                                              ; preds = %100, %97
  br label %105

105:                                              ; preds = %104
  br label %106

106:                                              ; preds = %105
  br label %107

107:                                              ; preds = %106
  %108 = load i64, ptr @H5E_ARGS_g, align 8
  %109 = load i64, ptr @H5E_BADVALUE_g, align 8
  %110 = call i32 (ptr, ptr, i32, i64, i64, ptr, ...) @H5E_printf_stack(ptr noundef @.str, ptr noundef @__func__.H5Pget_size, i32 noundef 756, i64 noundef %108, i64 noundef %109, ptr noundef @.str.19)
  br label %111

111:                                              ; preds = %107
  store i8 1, ptr %11, align 1
  %112 = load i8, ptr %11, align 1
  %113 = trunc i8 %112 to i1
  %114 = zext i1 %113 to i8
  store i8 %114, ptr %11, align 1
  br label %115

115:                                              ; preds = %111
  br label %116

116:                                              ; preds = %115
  store i32 -1, ptr %9, align 4
  br label %244

117:                                              ; No predecessors!
  br label %118

118:                                              ; preds = %117
  br label %119

119:                                              ; preds = %118, %100
  %120 = load ptr, ptr %6, align 8
  %121 = icmp eq ptr %120, null
  br i1 %121, label %122, label %137

122:                                              ; preds = %119
  br label %123

123:                                              ; preds = %122
  br label %124

124:                                              ; preds = %123
  br label %125

125:                                              ; preds = %124
  %126 = load i64, ptr @H5E_ARGS_g, align 8
  %127 = load i64, ptr @H5E_BADVALUE_g, align 8
  %128 = call i32 (ptr, ptr, i32, i64, i64, ptr, ...) @H5E_printf_stack(ptr noundef @.str, ptr noundef @__func__.H5Pget_size, i32 noundef 758, i64 noundef %126, i64 noundef %127, ptr noundef @.str.27)
  br label %129

129:                                              ; preds = %125
  store i8 1, ptr %11, align 1
  %130 = load i8, ptr %11, align 1
  %131 = trunc i8 %130 to i1
  %132 = zext i1 %131 to i8
  store i8 %132, ptr %11, align 1
  br label %133

133:                                              ; preds = %129
  br label %134

134:                                              ; preds = %133
  store i32 -1, ptr %9, align 4
  br label %244

135:                                              ; No predecessors!
  br label %136

136:                                              ; preds = %135
  br label %137

137:                                              ; preds = %136, %119
  %138 = load i64, ptr %4, align 8
  %139 = call i32 @H5I_get_type(i64 noundef %138)
  %140 = icmp eq i32 11, %139
  br i1 %140, label %141, label %182

141:                                              ; preds = %137
  %142 = load i64, ptr %4, align 8
  %143 = call ptr @H5I_object(i64 noundef %142)
  store ptr %143, ptr %8, align 8
  %144 = icmp eq ptr null, %143
  br i1 %144, label %145, label %160

145:                                              ; preds = %141
  br label %146

146:                                              ; preds = %145
  br label %147

147:                                              ; preds = %146
  br label %148

148:                                              ; preds = %147
  %149 = load i64, ptr @H5E_ARGS_g, align 8
  %150 = load i64, ptr @H5E_BADTYPE_g, align 8
  %151 = call i32 (ptr, ptr, i32, i64, i64, ptr, ...) @H5E_printf_stack(ptr noundef @.str, ptr noundef @__func__.H5Pget_size, i32 noundef 762, i64 noundef %149, i64 noundef %150, ptr noundef @.str.18)
  br label %152

152:                                              ; preds = %148
  store i8 1, ptr %11, align 1
  %153 = load i8, ptr %11, align 1
  %154 = trunc i8 %153 to i1
  %155 = zext i1 %154 to i8
  store i8 %155, ptr %11, align 1
  br label %156

156:                                              ; preds = %152
  br label %157

157:                                              ; preds = %156
  store i32 -1, ptr %9, align 4
  br label %244

158:                                              ; No predecessors!
  br label %159

159:                                              ; preds = %158
  br label %160

160:                                              ; preds = %159, %141
  %161 = load ptr, ptr %8, align 8
  %162 = load ptr, ptr %5, align 8
  %163 = load ptr, ptr %6, align 8
  %164 = call i32 @H5P__get_size_plist(ptr noundef %161, ptr noundef %162, ptr noundef %163)
  store i32 %164, ptr %9, align 4
  %165 = icmp slt i32 %164, 0
  br i1 %165, label %166, label %181

166:                                              ; preds = %160
  br label %167

167:                                              ; preds = %166
  br label %168

168:                                              ; preds = %167
  br label %169

169:                                              ; preds = %168
  %170 = load i64, ptr @H5E_PLIST_g, align 8
  %171 = load i64, ptr @H5E_CANTREGISTER_g, align 8
  %172 = call i32 (ptr, ptr, i32, i64, i64, ptr, ...) @H5E_printf_stack(ptr noundef @.str, ptr noundef @__func__.H5Pget_size, i32 noundef 766, i64 noundef %170, i64 noundef %171, ptr noundef @.str.28)
  br label %173

173:                                              ; preds = %169
  store i8 1, ptr %11, align 1
  %174 = load i8, ptr %11, align 1
  %175 = trunc i8 %174 to i1
  %176 = zext i1 %175 to i8
  store i8 %176, ptr %11, align 1
  br label %177

177:                                              ; preds = %173
  br label %178

178:                                              ; preds = %177
  store i32 -1, ptr %9, align 4
  br label %244

179:                                              ; No predecessors!
  br label %180

180:                                              ; preds = %179
  br label %181

181:                                              ; preds = %180, %160
  br label %243

182:                                              ; preds = %137
  %183 = load i64, ptr %4, align 8
  %184 = call i32 @H5I_get_type(i64 noundef %183)
  %185 = icmp eq i32 10, %184
  br i1 %185, label %186, label %227

186:                                              ; preds = %182
  %187 = load i64, ptr %4, align 8
  %188 = call ptr @H5I_object(i64 noundef %187)
  store ptr %188, ptr %7, align 8
  %189 = icmp eq ptr null, %188
  br i1 %189, label %190, label %205

190:                                              ; preds = %186
  br label %191

191:                                              ; preds = %190
  br label %192

192:                                              ; preds = %191
  br label %193

193:                                              ; preds = %192
  %194 = load i64, ptr @H5E_ARGS_g, align 8
  %195 = load i64, ptr @H5E_BADTYPE_g, align 8
  %196 = call i32 (ptr, ptr, i32, i64, i64, ptr, ...) @H5E_printf_stack(ptr noundef @.str, ptr noundef @__func__.H5Pget_size, i32 noundef 770, i64 noundef %194, i64 noundef %195, ptr noundef @.str.18)
  br label %197

197:                                              ; preds = %193
  store i8 1, ptr %11, align 1
  %198 = load i8, ptr %11, align 1
  %199 = trunc i8 %198 to i1
  %200 = zext i1 %199 to i8
  store i8 %200, ptr %11, align 1
  br label %201

201:                                              ; preds = %197
  br label %202

202:                                              ; preds = %201
  store i32 -1, ptr %9, align 4
  br label %244

203:                                              ; No predecessors!
  br label %204

204:                                              ; preds = %203
  br label %205

205:                                              ; preds = %204, %186
  %206 = load ptr, ptr %7, align 8
  %207 = load ptr, ptr %5, align 8
  %208 = load ptr, ptr %6, align 8
  %209 = call i32 @H5P__get_size_pclass(ptr noundef %206, ptr noundef %207, ptr noundef %208)
  store i32 %209, ptr %9, align 4
  %210 = icmp slt i32 %209, 0
  br i1 %210, label %211, label %226

211:                                              ; preds = %205
  br label %212

212:                                              ; preds = %211
  br label %213

213:                                              ; preds = %212
  br label %214

214:                                              ; preds = %213
  %215 = load i64, ptr @H5E_PLIST_g, align 8
  %216 = load i64, ptr @H5E_CANTREGISTER_g, align 8
  %217 = call i32 (ptr, ptr, i32, i64, i64, ptr, ...) @H5E_printf_stack(ptr noundef @.str, ptr noundef @__func__.H5Pget_size, i32 noundef 774, i64 noundef %215, i64 noundef %216, ptr noundef @.str.28)
  br label %218

218:                                              ; preds = %214
  store i8 1, ptr %11, align 1
  %219 = load i8, ptr %11, align 1
  %220 = trunc i8 %219 to i1
  %221 = zext i1 %220 to i8
  store i8 %221, ptr %11, align 1
  br label %222

222:                                              ; preds = %218
  br label %223

223:                                              ; preds = %222
  store i32 -1, ptr %9, align 4
  br label %244

224:                                              ; No predecessors!
  br label %225

225:                                              ; preds = %224
  br label %226

226:                                              ; preds = %225, %205
  br label %242

227:                                              ; preds = %182
  br label %228

228:                                              ; preds = %227
  br label %229

229:                                              ; preds = %228
  br label %230

230:                                              ; preds = %229
  %231 = load i64, ptr @H5E_ARGS_g, align 8
  %232 = load i64, ptr @H5E_BADTYPE_g, align 8
  %233 = call i32 (ptr, ptr, i32, i64, i64, ptr, ...) @H5E_printf_stack(ptr noundef @.str, ptr noundef @__func__.H5Pget_size, i32 noundef 777, i64 noundef %231, i64 noundef %232, ptr noundef @.str.23)
  br label %234

234:                                              ; preds = %230
  store i8 1, ptr %11, align 1
  %235 = load i8, ptr %11, align 1
  %236 = trunc i8 %235 to i1
  %237 = zext i1 %236 to i8
  store i8 %237, ptr %11, align 1
  br label %238

238:                                              ; preds = %234
  br label %239

239:                                              ; preds = %238
  store i32 -1, ptr %9, align 4
  br label %244

240:                                              ; No predecessors!
  br label %241

241:                                              ; preds = %240
  br label %242

242:                                              ; preds = %241, %226
  br label %243

243:                                              ; preds = %242, %181
  br label %244

244:                                              ; preds = %243, %239, %223, %202, %178, %157, %134, %116, %94, %69, %45
  %245 = load i8, ptr %10, align 1
  %246 = trunc i8 %245 to i1
  %247 = xor i1 %246, true
  %248 = xor i1 %247, true
  %249 = zext i1 %248 to i32
  %250 = sext i32 %249 to i64
  %251 = icmp ne i64 %250, 0
  br i1 %251, label %252, label %254

252:                                              ; preds = %244
  %253 = call i32 @H5CX_pop(i1 noundef zeroext true)
  store i8 0, ptr %10, align 1
  br label %254

254:                                              ; preds = %252, %244
  %255 = load i8, ptr %11, align 1
  %256 = trunc i8 %255 to i1
  %257 = xor i1 %256, true
  %258 = xor i1 %257, true
  %259 = zext i1 %258 to i32
  %260 = sext i32 %259 to i64
  %261 = icmp ne i64 %260, 0
  br i1 %261, label %262, label %264

262:                                              ; preds = %254
  %263 = call i32 @H5E_dump_api_stack()
  br label %264

264:                                              ; preds = %262, %254
  %265 = load i32, ptr %9, align 4
  ret i32 %265
}