; Function Attrs: nounwind uwtable
define range(i32 -1, -2147483648) i32 @H5Pget_size(i64 noundef %0, ptr noundef %1, ptr noundef %2) local_unnamed_addr #0 {
  %4 = load i8, ptr @H5_libinit_g, align 1
  %5 = trunc i8 %4 to i1
  %6 = load i8, ptr @H5_libterm_g, align 1
  %7 = trunc i8 %6 to i1
  %8 = select i1 %5, i1 true, i1 %7
  br i1 %8, label %16, label %9

9:                                                ; preds = %3
  %10 = tail call i32 @H5_init_library() #2
  %11 = icmp slt i32 %10, 0
  br i1 %11, label %12, label %16

12:                                               ; preds = %9
  %13 = load i64, ptr @H5E_FUNC_g, align 8
  %14 = load i64, ptr @H5E_CANTINIT_g, align 8
  %15 = tail call i32 (ptr, ptr, i32, i64, i64, ptr, ...) @H5E_printf_stack(ptr noundef nonnull @.str, ptr noundef nonnull @__func__.H5Pget_size, i32 noundef 750, i64 noundef %13, i64 noundef %14, ptr noundef nonnull @.str.1) #2
  br label %.thread46

16:                                               ; preds = %9, %3
  %17 = tail call i32 @H5CX_push() #2
  %18 = icmp slt i32 %17, 0
  br i1 %18, label %19, label %23

19:                                               ; preds = %16
  %20 = load i64, ptr @H5E_FUNC_g, align 8
  %21 = load i64, ptr @H5E_CANTSET_g, align 8
  %22 = tail call i32 (ptr, ptr, i32, i64, i64, ptr, ...) @H5E_printf_stack(ptr noundef nonnull @.str, ptr noundef nonnull @__func__.H5Pget_size, i32 noundef 750, i64 noundef %20, i64 noundef %21, ptr noundef nonnull @.str.2) #2
  br label %.thread46

23:                                               ; preds = %16
  %24 = tail call i32 @H5E_clear_stack() #2
  %25 = tail call i32 @H5I_get_type(i64 noundef %0) #2
  %.not = icmp eq i32 %25, 11
  br i1 %.not, label %32, label %26

26:                                               ; preds = %23
  %27 = tail call i32 @H5I_get_type(i64 noundef %0) #2
  %.not35 = icmp eq i32 %27, 10
  br i1 %.not35, label %32, label %28

28:                                               ; preds = %26
  %29 = load i64, ptr @H5E_ARGS_g, align 8
  %30 = load i64, ptr @H5E_BADTYPE_g, align 8
  %31 = tail call i32 (ptr, ptr, i32, i64, i64, ptr, ...) @H5E_printf_stack(ptr noundef nonnull @.str, ptr noundef nonnull @__func__.H5Pget_size, i32 noundef 754, i64 noundef %29, i64 noundef %30, ptr noundef nonnull @.str.23) #2
  br label %.thread52

32:                                               ; preds = %26, %23
  %.not36 = icmp eq ptr %1, null
  br i1 %.not36, label %35, label %33

33:                                               ; preds = %32
  %34 = load i8, ptr %1, align 1
  %.not37 = icmp eq i8 %34, 0
  br i1 %.not37, label %35, label %39

35:                                               ; preds = %32, %33
  %36 = load i64, ptr @H5E_ARGS_g, align 8
  %37 = load i64, ptr @H5E_BADVALUE_g, align 8
  %38 = tail call i32 (ptr, ptr, i32, i64, i64, ptr, ...) @H5E_printf_stack(ptr noundef nonnull @.str, ptr noundef nonnull @__func__.H5Pget_size, i32 noundef 756, i64 noundef %36, i64 noundef %37, ptr noundef nonnull @.str.19) #2
  br label %.thread52

39:                                               ; preds = %33
  %40 = icmp eq ptr %2, null
  br i1 %40, label %41, label %45

41:                                               ; preds = %39
  %42 = load i64, ptr @H5E_ARGS_g, align 8
  %43 = load i64, ptr @H5E_BADVALUE_g, align 8
  %44 = tail call i32 (ptr, ptr, i32, i64, i64, ptr, ...) @H5E_printf_stack(ptr noundef nonnull @.str, ptr noundef nonnull @__func__.H5Pget_size, i32 noundef 758, i64 noundef %42, i64 noundef %43, ptr noundef nonnull @.str.27) #2
  br label %.thread52

45:                                               ; preds = %39
  %46 = tail call i32 @H5I_get_type(i64 noundef %0) #2
  %47 = icmp eq i32 %46, 11
  br i1 %47, label %48, label %62

48:                                               ; preds = %45
  %49 = tail call ptr @H5I_object(i64 noundef %0) #2
  %50 = icmp eq ptr %49, null
  br i1 %50, label %51, label %55

51:                                               ; preds = %48
  %52 = load i64, ptr @H5E_ARGS_g, align 8
  %53 = load i64, ptr @H5E_BADTYPE_g, align 8
  %54 = tail call i32 (ptr, ptr, i32, i64, i64, ptr, ...) @H5E_printf_stack(ptr noundef nonnull @.str, ptr noundef nonnull @__func__.H5Pget_size, i32 noundef 762, i64 noundef %52, i64 noundef %53, ptr noundef nonnull @.str.18) #2
  br label %.thread52

55:                                               ; preds = %48
  %56 = tail call i32 @H5P__get_size_plist(ptr noundef nonnull %49, ptr noundef nonnull %1, ptr noundef nonnull %2) #2
  %57 = icmp slt i32 %56, 0
  br i1 %57, label %58, label %84

58:                                               ; preds = %55
  %59 = load i64, ptr @H5E_PLIST_g, align 8
  %60 = load i64, ptr @H5E_CANTREGISTER_g, align 8
  %61 = tail call i32 (ptr, ptr, i32, i64, i64, ptr, ...) @H5E_printf_stack(ptr noundef nonnull @.str, ptr noundef nonnull @__func__.H5Pget_size, i32 noundef 766, i64 noundef %59, i64 noundef %60, ptr noundef nonnull @.str.28) #2
  br label %.thread52

62:                                               ; preds = %45
  %63 = tail call i32 @H5I_get_type(i64 noundef %0) #2
  %64 = icmp eq i32 %63, 10
  br i1 %64, label %65, label %79

65:                                               ; preds = %62
  %66 = tail call ptr @H5I_object(i64 noundef %0) #2
  %67 = icmp eq ptr %66, null
  br i1 %67, label %68, label %72

68:                                               ; preds = %65
  %69 = load i64, ptr @H5E_ARGS_g, align 8
  %70 = load i64, ptr @H5E_BADTYPE_g, align 8
  %71 = tail call i32 (ptr, ptr, i32, i64, i64, ptr, ...) @H5E_printf_stack(ptr noundef nonnull @.str, ptr noundef nonnull @__func__.H5Pget_size, i32 noundef 770, i64 noundef %69, i64 noundef %70, ptr noundef nonnull @.str.18) #2
  br label %.thread52

72:                                               ; preds = %65
  %73 = tail call i32 @H5P__get_size_pclass(ptr noundef nonnull %66, ptr noundef nonnull %1, ptr noundef nonnull %2) #2
  %74 = icmp slt i32 %73, 0
  br i1 %74, label %75, label %84

75:                                               ; preds = %72
  %76 = load i64, ptr @H5E_PLIST_g, align 8
  %77 = load i64, ptr @H5E_CANTREGISTER_g, align 8
  %78 = tail call i32 (ptr, ptr, i32, i64, i64, ptr, ...) @H5E_printf_stack(ptr noundef nonnull @.str, ptr noundef nonnull @__func__.H5Pget_size, i32 noundef 774, i64 noundef %76, i64 noundef %77, ptr noundef nonnull @.str.28) #2
  br label %.thread52

79:                                               ; preds = %62
  %80 = load i64, ptr @H5E_ARGS_g, align 8
  %81 = load i64, ptr @H5E_BADTYPE_g, align 8
  %82 = tail call i32 (ptr, ptr, i32, i64, i64, ptr, ...) @H5E_printf_stack(ptr noundef nonnull @.str, ptr noundef nonnull @__func__.H5Pget_size, i32 noundef 777, i64 noundef %80, i64 noundef %81, ptr noundef nonnull @.str.23) #2
  br label %.thread52

.thread52:                                        ; preds = %35, %79, %75, %68, %58, %51, %41, %28
  %83 = tail call i32 @H5CX_pop(i1 noundef zeroext true) #2
  br label %.thread46

84:                                               ; preds = %72, %55
  %.028.ph = phi i32 [ %73, %72 ], [ %56, %55 ]
  %85 = tail call i32 @H5CX_pop(i1 noundef zeroext true) #2
  br label %87

.thread46:                                        ; preds = %19, %12, %.thread52
  %86 = tail call i32 @H5E_dump_api_stack() #2
  br label %87

87:                                               ; preds = %84, %.thread46
  %.0284149 = phi i32 [ -1, %.thread46 ], [ %.028.ph, %84 ]
  ret i32 %.0284149
}